	.file	"gdbtest.c"
	.text
.Ltext0:
	.file 0 "/home/ics/labs/lab-0" "gdbtest.c"
	.section	.rodata
.LC0:
	.string	"z = %d\n"
	.text
	.globl	main
	.type	main, @function
main:
.LFB0:
	.file 1 "gdbtest.c"
	.loc 1 3 11
	.cfi_startproc
	leal	4(%esp), %ecx
	.cfi_def_cfa 1, 0
	andl	$-16, %esp
	pushl	-4(%ecx)
	pushl	%ebp
	movl	%esp, %ebp
	.cfi_escape 0x10,0x5,0x2,0x75,0
	pushl	%ebx
	pushl	%ecx
	.cfi_escape 0xf,0x3,0x75,0x78,0x6
	.cfi_escape 0x10,0x3,0x2,0x75,0x7c
	subl	$16, %esp
	call	__x86.get_pc_thunk.ax
	addl	$_GLOBAL_OFFSET_TABLE_, %eax
	.loc 1 4 9
	movl	$3, -12(%ebp)
	.loc 1 4 16
	movl	$5, -16(%ebp)
	.loc 1 5 7
	movl	-12(%ebp), %ecx
	movl	-16(%ebp), %edx
	addl	%ecx, %edx
	movl	%edx, -20(%ebp)
	.loc 1 6 5
	subl	$8, %esp
	pushl	-20(%ebp)
	leal	.LC0@GOTOFF(%eax), %edx
	pushl	%edx
	movl	%eax, %ebx
	call	printf@PLT
	addl	$16, %esp
	.loc 1 7 12
	movl	$0, %eax
	.loc 1 8 1
	leal	-8(%ebp), %esp
	popl	%ecx
	.cfi_restore 1
	.cfi_def_cfa 1, 0
	popl	%ebx
	.cfi_restore 3
	popl	%ebp
	.cfi_restore 5
	leal	-4(%ecx), %esp
	.cfi_def_cfa 4, 4
	ret
	.cfi_endproc
.LFE0:
	.size	main, .-main
	.section	.text.__x86.get_pc_thunk.ax,"axG",@progbits,__x86.get_pc_thunk.ax,comdat
	.globl	__x86.get_pc_thunk.ax
	.hidden	__x86.get_pc_thunk.ax
	.type	__x86.get_pc_thunk.ax, @function
__x86.get_pc_thunk.ax:
.LFB1:
	.cfi_startproc
	movl	(%esp), %eax
	ret
	.cfi_endproc
.LFE1:
	.text
.Letext0:
	.file 2 "/usr/include/stdio.h"
	.section	.note.GNU-stack,"",@progbits
