
endian:     file format elf32-i386


Disassembly of section .init:

00001000 <_init>:
    1000:	53                   	push   %ebx
    1001:	83 ec 08             	sub    $0x8,%esp
    1004:	e8 87 00 00 00       	call   1090 <__x86.get_pc_thunk.bx>
    1009:	81 c3 eb 2f 00 00    	add    $0x2feb,%ebx
    100f:	8b 83 f4 ff ff ff    	mov    -0xc(%ebx),%eax
    1015:	85 c0                	test   %eax,%eax
    1017:	74 02                	je     101b <_init+0x1b>
    1019:	ff d0                	call   *%eax
    101b:	83 c4 08             	add    $0x8,%esp
    101e:	5b                   	pop    %ebx
    101f:	c3                   	ret

Disassembly of section .plt:

00001020 <__libc_start_main@plt-0x10>:
    1020:	ff b3 04 00 00 00    	push   0x4(%ebx)
    1026:	ff a3 08 00 00 00    	jmp    *0x8(%ebx)
    102c:	00 00                	add    %al,(%eax)
	...

00001030 <__libc_start_main@plt>:
    1030:	ff a3 0c 00 00 00    	jmp    *0xc(%ebx)
    1036:	68 00 00 00 00       	push   $0x0
    103b:	e9 e0 ff ff ff       	jmp    1020 <_init+0x20>

00001040 <printf@plt>:
    1040:	ff a3 10 00 00 00    	jmp    *0x10(%ebx)
    1046:	68 08 00 00 00       	push   $0x8
    104b:	e9 d0 ff ff ff       	jmp    1020 <_init+0x20>

Disassembly of section .plt.got:

00001050 <__cxa_finalize@plt>:
    1050:	ff a3 f0 ff ff ff    	jmp    *-0x10(%ebx)
    1056:	66 90                	xchg   %ax,%ax

Disassembly of section .text:

00001060 <_start>:
    1060:	31 ed                	xor    %ebp,%ebp
    1062:	5e                   	pop    %esi
    1063:	89 e1                	mov    %esp,%ecx
    1065:	83 e4 f0             	and    $0xfffffff0,%esp
    1068:	50                   	push   %eax
    1069:	54                   	push   %esp
    106a:	52                   	push   %edx
    106b:	e8 18 00 00 00       	call   1088 <_start+0x28>
    1070:	81 c3 84 2f 00 00    	add    $0x2f84,%ebx
    1076:	6a 00                	push   $0x0
    1078:	6a 00                	push   $0x0
    107a:	51                   	push   %ecx
    107b:	56                   	push   %esi
    107c:	ff b3 f8 ff ff ff    	push   -0x8(%ebx)
    1082:	e8 a9 ff ff ff       	call   1030 <__libc_start_main@plt>
    1087:	f4                   	hlt
    1088:	8b 1c 24             	mov    (%esp),%ebx
    108b:	c3                   	ret
    108c:	66 90                	xchg   %ax,%ax
    108e:	66 90                	xchg   %ax,%ax

00001090 <__x86.get_pc_thunk.bx>:
    1090:	8b 1c 24             	mov    (%esp),%ebx
    1093:	c3                   	ret
    1094:	66 90                	xchg   %ax,%ax
    1096:	66 90                	xchg   %ax,%ax
    1098:	66 90                	xchg   %ax,%ax
    109a:	66 90                	xchg   %ax,%ax
    109c:	66 90                	xchg   %ax,%ax
    109e:	66 90                	xchg   %ax,%ax

000010a0 <deregister_tm_clones>:
    10a0:	e8 e0 00 00 00       	call   1185 <__x86.get_pc_thunk.dx>
    10a5:	81 c2 4f 2f 00 00    	add    $0x2f4f,%edx
    10ab:	8d 8a 1c 00 00 00    	lea    0x1c(%edx),%ecx
    10b1:	8d 82 1c 00 00 00    	lea    0x1c(%edx),%eax
    10b7:	39 c8                	cmp    %ecx,%eax
    10b9:	74 1d                	je     10d8 <deregister_tm_clones+0x38>
    10bb:	8b 82 ec ff ff ff    	mov    -0x14(%edx),%eax
    10c1:	85 c0                	test   %eax,%eax
    10c3:	74 13                	je     10d8 <deregister_tm_clones+0x38>
    10c5:	55                   	push   %ebp
    10c6:	89 e5                	mov    %esp,%ebp
    10c8:	83 ec 14             	sub    $0x14,%esp
    10cb:	51                   	push   %ecx
    10cc:	ff d0                	call   *%eax
    10ce:	83 c4 10             	add    $0x10,%esp
    10d1:	c9                   	leave
    10d2:	c3                   	ret
    10d3:	8d 74 26 00          	lea    0x0(%esi,%eiz,1),%esi
    10d7:	90                   	nop
    10d8:	c3                   	ret
    10d9:	8d b4 26 00 00 00 00 	lea    0x0(%esi,%eiz,1),%esi

000010e0 <register_tm_clones>:
    10e0:	e8 a0 00 00 00       	call   1185 <__x86.get_pc_thunk.dx>
    10e5:	81 c2 0f 2f 00 00    	add    $0x2f0f,%edx
    10eb:	55                   	push   %ebp
    10ec:	89 e5                	mov    %esp,%ebp
    10ee:	53                   	push   %ebx
    10ef:	8d 8a 1c 00 00 00    	lea    0x1c(%edx),%ecx
    10f5:	8d 82 1c 00 00 00    	lea    0x1c(%edx),%eax
    10fb:	83 ec 04             	sub    $0x4,%esp
    10fe:	29 c8                	sub    %ecx,%eax
    1100:	89 c3                	mov    %eax,%ebx
    1102:	c1 e8 1f             	shr    $0x1f,%eax
    1105:	c1 fb 02             	sar    $0x2,%ebx
    1108:	01 d8                	add    %ebx,%eax
    110a:	d1 f8                	sar    %eax
    110c:	74 14                	je     1122 <register_tm_clones+0x42>
    110e:	8b 92 fc ff ff ff    	mov    -0x4(%edx),%edx
    1114:	85 d2                	test   %edx,%edx
    1116:	74 0a                	je     1122 <register_tm_clones+0x42>
    1118:	83 ec 08             	sub    $0x8,%esp
    111b:	50                   	push   %eax
    111c:	51                   	push   %ecx
    111d:	ff d2                	call   *%edx
    111f:	83 c4 10             	add    $0x10,%esp
    1122:	8b 5d fc             	mov    -0x4(%ebp),%ebx
    1125:	c9                   	leave
    1126:	c3                   	ret
    1127:	8d b4 26 00 00 00 00 	lea    0x0(%esi,%eiz,1),%esi
    112e:	66 90                	xchg   %ax,%ax

00001130 <__do_global_dtors_aux>:
    1130:	55                   	push   %ebp
    1131:	89 e5                	mov    %esp,%ebp
    1133:	53                   	push   %ebx
    1134:	e8 57 ff ff ff       	call   1090 <__x86.get_pc_thunk.bx>
    1139:	81 c3 bb 2e 00 00    	add    $0x2ebb,%ebx
    113f:	83 ec 04             	sub    $0x4,%esp
    1142:	80 bb 1c 00 00 00 00 	cmpb   $0x0,0x1c(%ebx)
    1149:	75 27                	jne    1172 <__do_global_dtors_aux+0x42>
    114b:	8b 83 f0 ff ff ff    	mov    -0x10(%ebx),%eax
    1151:	85 c0                	test   %eax,%eax
    1153:	74 11                	je     1166 <__do_global_dtors_aux+0x36>
    1155:	83 ec 0c             	sub    $0xc,%esp
    1158:	ff b3 18 00 00 00    	push   0x18(%ebx)
    115e:	e8 ed fe ff ff       	call   1050 <__cxa_finalize@plt>
    1163:	83 c4 10             	add    $0x10,%esp
    1166:	e8 35 ff ff ff       	call   10a0 <deregister_tm_clones>
    116b:	c6 83 1c 00 00 00 01 	movb   $0x1,0x1c(%ebx)
    1172:	8b 5d fc             	mov    -0x4(%ebp),%ebx
    1175:	c9                   	leave
    1176:	c3                   	ret
    1177:	8d b4 26 00 00 00 00 	lea    0x0(%esi,%eiz,1),%esi
    117e:	66 90                	xchg   %ax,%ax

00001180 <frame_dummy>:
    1180:	e9 5b ff ff ff       	jmp    10e0 <register_tm_clones>

00001185 <__x86.get_pc_thunk.dx>:
    1185:	8b 14 24             	mov    (%esp),%edx
    1188:	c3                   	ret

00001189 <main>:
#include <stdio.h>

int main(int argc, char **argv) {
    1189:	8d 4c 24 04          	lea    0x4(%esp),%ecx
    118d:	83 e4 f0             	and    $0xfffffff0,%esp
    1190:	ff 71 fc             	push   -0x4(%ecx)
    1193:	55                   	push   %ebp
    1194:	89 e5                	mov    %esp,%ebp
    1196:	53                   	push   %ebx
    1197:	51                   	push   %ecx
    1198:	83 ec 10             	sub    $0x10,%esp
    119b:	e8 50 00 00 00       	call   11f0 <__x86.get_pc_thunk.ax>
    11a0:	05 54 2e 00 00       	add    $0x2e54,%eax
    char a = 100;
    11a5:	c6 45 f7 64          	movb   $0x64,-0x9(%ebp)
    short b = 100;
    11a9:	66 c7 45 f4 64 00    	movw   $0x64,-0xc(%ebp)
    int c = 100;
    11af:	c7 45 f0 64 00 00 00 	movl   $0x64,-0x10(%ebp)
    int d = 0x12345678;
    11b6:	c7 45 ec 78 56 34 12 	movl   $0x12345678,-0x14(%ebp)
    printf("a = %0xH, b = %0xH, c = %0xH, d = %0xH", a, b, c, d);
    11bd:	0f bf 4d f4          	movswl -0xc(%ebp),%ecx
    11c1:	0f be 55 f7          	movsbl -0x9(%ebp),%edx
    11c5:	83 ec 0c             	sub    $0xc,%esp
    11c8:	ff 75 ec             	push   -0x14(%ebp)
    11cb:	ff 75 f0             	push   -0x10(%ebp)
    11ce:	51                   	push   %ecx
    11cf:	52                   	push   %edx
    11d0:	8d 90 14 e0 ff ff    	lea    -0x1fec(%eax),%edx
    11d6:	52                   	push   %edx
    11d7:	89 c3                	mov    %eax,%ebx
    11d9:	e8 62 fe ff ff       	call   1040 <printf@plt>
    11de:	83 c4 20             	add    $0x20,%esp
    return 0;
    11e1:	b8 00 00 00 00       	mov    $0x0,%eax
}
    11e6:	8d 65 f8             	lea    -0x8(%ebp),%esp
    11e9:	59                   	pop    %ecx
    11ea:	5b                   	pop    %ebx
    11eb:	5d                   	pop    %ebp
    11ec:	8d 61 fc             	lea    -0x4(%ecx),%esp
    11ef:	c3                   	ret

000011f0 <__x86.get_pc_thunk.ax>:
    11f0:	8b 04 24             	mov    (%esp),%eax
    11f3:	c3                   	ret

Disassembly of section .fini:

000011f4 <_fini>:
    11f4:	53                   	push   %ebx
    11f5:	83 ec 08             	sub    $0x8,%esp
    11f8:	e8 93 fe ff ff       	call   1090 <__x86.get_pc_thunk.bx>
    11fd:	81 c3 f7 2d 00 00    	add    $0x2df7,%ebx
    1203:	83 c4 08             	add    $0x8,%esp
    1206:	5b                   	pop    %ebx
    1207:	c3                   	ret
